; Function Attrs: nounwind sspstrong uwtable
define internal noundef i64 @dir_s_rmdir(i64 %0, i64 noundef %1) #0 {
  %3 = tail call fastcc i64 @check_dirname(i64 noundef %1)
  %4 = inttoptr i64 %3 to ptr
  %5 = load i64, ptr %4, align 8, !tbaa !61, !noalias !94
  %6 = and i64 %5, 8192
  %.not.i.i = icmp eq i64 %6, 0
  %7 = getelementptr inbounds nuw i8, ptr %4, i64 24
  br i1 %.not.i.i, label %RSTRING_PTR.exit, label %8

8:                                                ; preds = %2
  %.sroa.2.0.copyload.i = load ptr, ptr %7, align 8
  br label %RSTRING_PTR.exit

RSTRING_PTR.exit:                                 ; preds = %2, %8
  %.sroa.2.0.i = phi ptr [ %.sroa.2.0.copyload.i, %8 ], [ %7, %2 ]
  %9 = tail call ptr @rb_nogvl(ptr noundef nonnull @nogvl_rmdir, ptr noundef %.sroa.2.0.i, ptr noundef nonnull inttoptr (i64 -1 to ptr), ptr noundef null, i32 noundef 4) #22
  %10 = ptrtoint ptr %9 to i64
  %11 = and i64 %10, 2147483648
  %.not = icmp eq i64 %11, 0
  br i1 %.not, label %15, label %12

12:                                               ; preds = %RSTRING_PTR.exit
  %13 = tail call ptr @rb_errno_ptr() #22
  %14 = load i32, ptr %13, align 4, !tbaa !58
  tail call void @rb_syserr_fail_path_in(ptr noundef nonnull @__func__.dir_s_rmdir, i32 noundef %14, i64 noundef %3) #26
  unreachable

15:                                               ; preds = %RSTRING_PTR.exit
  ret i64 1
}